ccopy_reg
_reconstructor
p0
(cForest
For5
p1
c__builtin__
object
p2
Ntp3
Rp4
(dp5
S'locked'
p6
I00
sS'NAME'
p7
S'Dark forest'
p8
sS'COORDS'
p9
(I1
I6
I3
tp10
sS'desc'
p11
NsS'ADJ'
p12
(lp13
S'FOR4'
p14
asS'ID'
p15
S'FOR5'
p16
sS'FURN'
p17
(lp18
sb.