ccopy_reg
_reconstructor
p0
(cEndg
Endg
p1
c__builtin__
object
p2
Ntp3
Rp4
(dp5
S'locked'
p6
I00
sS'NAME'
p7
S''
p8
sS'COORDS'
p9
(I3
I7
I5
tp10
sS'desc'
p11
NsS'ADJ'
p12
(lp13
sS'ID'
p14
S'COUE'
p15
sS'FURN'
p16
(lp17
sb.