ccopy_reg
_reconstructor
p0
(cRoom
Room
p1
c__builtin__
object
p2
Ntp3
Rp4
(dp5
S'locked'
p6
I00
sS'NAME'
p7
S'NULL'
p8
sS'COORDS'
p9
(I0
I0
I0
tp10
sS'desc'
p11
NsS'ADJ'
p12
(lp13
sS'ID'
p14
g8
sS'FURN'
p15
(lp16
sb.