ccopy_reg
_reconstructor
p0
(cCrypt
Cry2
p1
c__builtin__
object
p2
Ntp3
Rp4
(dp5
S'locked'
p6
I00
sS'NAME'
p7
S'Crypt'
p8
sS'COORDS'
p9
(I4
I3
I6
tp10
sS'desc'
p11
NsS'ADJ'
p12
(lp13
S'CRY1'
p14
asS'ID'
p15
S'CRY2'
p16
sS'FURN'
p17
(lp18
g0
(cStructure_gen
Wall
p19
g2
Ntp20
Rp21
(dp22
S'description'
p23
S'The walls are rough gray stone brick, covered in moss and wet to the touch from the humid air.'
p24
sS'searchable'
p25
I00
sS'searchDialog'
p26
S"The walls here are solid and couldn't hide anything."
p27
sS'inv'
p28
NsS'useDialog'
p29
S'You whack the wall and jolt backwards. Well, that was productive.'
p30
sS'actDialog'
p31
S'What do expect to find? A pork chop?'
p32
sS'NAMEKEYS'
p33
(lp34
cre
_compile
p35
(S'walls?'
p36
I0
tp37
Rp38
asg15
I562
sS'USEKEYS'
p39
(lp40
g35
(S'.+'
p41
I0
tp42
Rp43
asS'ACTKEYS'
p44
(lp45
g35
(S'break'
p46
I0
tp47
Rp48
ag35
(S'climb|scale|ascend|descend'
p49
I0
tp50
Rp51
ag35
(S'push'
p52
I0
tp53
Rp54
ag35
(S'press'
p55
I0
tp56
Rp57
ag35
(S'lean'
p58
I0
tp59
Rp60
asbag0
(cTunnels
Dungeon_Floor
p61
g2
Ntp62
Rp63
(dp64
g23
S'The ground is damp and made of large gray stone bricks. Here and there, moss grows in the cracks.'
p65
sg25
I01
sg26
S'You crouch down and scan the ground.'
p66
sg28
g0
(cInventory
Inventory
p67
g2
Ntp68
Rp69
(dp70
S'CONTENTS'
p71
(lp72
sbsg29
S"There's no reason to stand the ladder up in here."
p73
sg31
S'You jam the spade into the floor. Your body jolts and you stagger back. The floor is undefeated.'
p74
sg33
(lp75
g35
(S'floor'
p76
I0
tp77
Rp78
ag35
(S'ground'
p79
I0
tp80
Rp81
ag35
(S'walkway'
p82
I0
tp83
Rp84
asg15
I608
sg39
(lp85
g35
(S'fixed ladder'
p86
I0
tp87
Rp88
ag35
(S'shovel'
p89
I0
tp90
Rp91
ag35
(S'water bucket'
p92
I0
tp93
Rp94
ag35
(S'trowel'
p95
I0
tp96
Rp97
ag35
(S'mop'
p98
I0
tp99
Rp100
ag35
(S'sweep'
p101
I0
tp102
Rp103
asg44
(lp104
g35
(S'dig'
p105
I0
tp106
Rp107
ag91
ag100
ag35
(S'clean'
p108
I0
tp109
Rp110
asbag0
(cCrypt
Cry_Drawers
p111
g2
Ntp112
Rp113
(dp114
g23
S"The drawers are most likely being used to hold the dead. Who exactly, you don't know. The drawers are each labeled a with a number from 1 to 100."
p115
sg25
I00
sS'DRAWERS'
p116
(lp117
g0
(g67
g2
Ntp118
Rp119
(dp120
g71
(lp121
g0
(cItem
Liquid
p122
g2
Ntp123
Rp124
(dp125
g7
S'jarred brain'
p126
sg23
Nsg29
S'You will need to be more specific.'
p127
sS'FORMS'
p128
NsS'score'
p129
I10
sS'THRESHOLD'
p130
I0
sS'type'
p131
S'liquid'
p132
sS'useID'
p133
I2
sbasbag0
(g67
g2
Ntp134
Rp135
(dp136
g71
g121
sbag0
(g67
g2
Ntp137
Rp138
(dp139
g71
g121
sbag0
(g67
g2
Ntp140
Rp141
(dp142
g71
g121
sbag0
(g67
g2
Ntp143
Rp144
(dp145
g71
g121
sbag0
(g67
g2
Ntp146
Rp147
(dp148
g71
g121
sbag0
(g67
g2
Ntp149
Rp150
(dp151
g71
g121
sbag0
(g67
g2
Ntp152
Rp153
(dp154
g71
g121
sbag0
(g67
g2
Ntp155
Rp156
(dp157
g71
g121
sbag0
(g67
g2
Ntp158
Rp159
(dp160
g71
g121
sbag0
(g67
g2
Ntp161
Rp162
(dp163
g71
g121
sbag0
(g67
g2
Ntp164
Rp165
(dp166
g71
g121
sbag0
(g67
g2
Ntp167
Rp168
(dp169
g71
g121
sbag0
(g67
g2
Ntp170
Rp171
(dp172
g71
g121
sbag0
(g67
g2
Ntp173
Rp174
(dp175
g71
g121
sbag0
(g67
g2
Ntp176
Rp177
(dp178
g71
g121
sbag0
(g67
g2
Ntp179
Rp180
(dp181
g71
g121
sbag0
(g67
g2
Ntp182
Rp183
(dp184
g71
g121
sbag0
(g67
g2
Ntp185
Rp186
(dp187
g71
g121
sbag0
(g67
g2
Ntp188
Rp189
(dp190
g71
g121
sbag0
(g67
g2
Ntp191
Rp192
(dp193
g71
g121
sbag0
(g67
g2
Ntp194
Rp195
(dp196
g71
g121
sbag0
(g67
g2
Ntp197
Rp198
(dp199
g71
g121
sbag0
(g67
g2
Ntp200
Rp201
(dp202
g71
g121
sbag0
(g67
g2
Ntp203
Rp204
(dp205
g71
g121
sbag0
(g67
g2
Ntp206
Rp207
(dp208
g71
g121
sbag0
(g67
g2
Ntp209
Rp210
(dp211
g71
g121
sbag0
(g67
g2
Ntp212
Rp213
(dp214
g71
g121
sbag0
(g67
g2
Ntp215
Rp216
(dp217
g71
g121
sbag0
(g67
g2
Ntp218
Rp219
(dp220
g71
g121
sbag0
(g67
g2
Ntp221
Rp222
(dp223
g71
g121
sbag0
(g67
g2
Ntp224
Rp225
(dp226
g71
g121
sbag0
(g67
g2
Ntp227
Rp228
(dp229
g71
g121
sbag0
(g67
g2
Ntp230
Rp231
(dp232
g71
g121
sbag0
(g67
g2
Ntp233
Rp234
(dp235
g71
g121
sbag0
(g67
g2
Ntp236
Rp237
(dp238
g71
g121
sbag0
(g67
g2
Ntp239
Rp240
(dp241
g71
g121
sbag0
(g67
g2
Ntp242
Rp243
(dp244
g71
g121
sbag0
(g67
g2
Ntp245
Rp246
(dp247
g71
g121
sbag0
(g67
g2
Ntp248
Rp249
(dp250
g71
g121
sbag0
(g67
g2
Ntp251
Rp252
(dp253
g71
g121
sbag0
(g67
g2
Ntp254
Rp255
(dp256
g71
g121
sbag0
(g67
g2
Ntp257
Rp258
(dp259
g71
g121
sbag0
(g67
g2
Ntp260
Rp261
(dp262
g71
g121
sbag0
(g67
g2
Ntp263
Rp264
(dp265
g71
g121
sbag0
(g67
g2
Ntp266
Rp267
(dp268
g71
g121
sbag0
(g67
g2
Ntp269
Rp270
(dp271
g71
g121
sbag0
(g67
g2
Ntp272
Rp273
(dp274
g71
g121
sbag0
(g67
g2
Ntp275
Rp276
(dp277
g71
g121
sbag0
(g67
g2
Ntp278
Rp279
(dp280
g71
g121
sbag0
(g67
g2
Ntp281
Rp282
(dp283
g71
g121
sbag0
(g67
g2
Ntp284
Rp285
(dp286
g71
g121
sbag0
(g67
g2
Ntp287
Rp288
(dp289
g71
g121
sbag0
(g67
g2
Ntp290
Rp291
(dp292
g71
g121
sbag0
(g67
g2
Ntp293
Rp294
(dp295
g71
g121
sbag0
(g67
g2
Ntp296
Rp297
(dp298
g71
g121
sbag0
(g67
g2
Ntp299
Rp300
(dp301
g71
g121
sbag0
(g67
g2
Ntp302
Rp303
(dp304
g71
g121
sbag0
(g67
g2
Ntp305
Rp306
(dp307
g71
g121
sbag0
(g67
g2
Ntp308
Rp309
(dp310
g71
g121
sbag0
(g67
g2
Ntp311
Rp312
(dp313
g71
g121
sbag0
(g67
g2
Ntp314
Rp315
(dp316
g71
g121
sbag0
(g67
g2
Ntp317
Rp318
(dp319
g71
g121
sbag0
(g67
g2
Ntp320
Rp321
(dp322
g71
g121
sbag0
(g67
g2
Ntp323
Rp324
(dp325
g71
g121
sbag0
(g67
g2
Ntp326
Rp327
(dp328
g71
g121
sbag0
(g67
g2
Ntp329
Rp330
(dp331
g71
g121
sbag0
(g67
g2
Ntp332
Rp333
(dp334
g71
g121
sbag0
(g67
g2
Ntp335
Rp336
(dp337
g71
g121
sbag0
(g67
g2
Ntp338
Rp339
(dp340
g71
g121
sbag0
(g67
g2
Ntp341
Rp342
(dp343
g71
g121
sbag0
(g67
g2
Ntp344
Rp345
(dp346
g71
g121
sbag0
(g67
g2
Ntp347
Rp348
(dp349
g71
g121
sbag0
(g67
g2
Ntp350
Rp351
(dp352
g71
g121
sbag0
(g67
g2
Ntp353
Rp354
(dp355
g71
g121
sbag0
(g67
g2
Ntp356
Rp357
(dp358
g71
g121
sbag0
(g67
g2
Ntp359
Rp360
(dp361
g71
g121
sbag0
(g67
g2
Ntp362
Rp363
(dp364
g71
g121
sbag0
(g67
g2
Ntp365
Rp366
(dp367
g71
g121
sbag0
(g67
g2
Ntp368
Rp369
(dp370
g71
g121
sbag0
(g67
g2
Ntp371
Rp372
(dp373
g71
g121
sbag0
(g67
g2
Ntp374
Rp375
(dp376
g71
g121
sbag0
(g67
g2
Ntp377
Rp378
(dp379
g71
g121
sbag0
(g67
g2
Ntp380
Rp381
(dp382
g71
g121
sbag0
(g67
g2
Ntp383
Rp384
(dp385
g71
g121
sbag0
(g67
g2
Ntp386
Rp387
(dp388
g71
g121
sbag0
(g67
g2
Ntp389
Rp390
(dp391
g71
g121
sbag0
(g67
g2
Ntp392
Rp393
(dp394
g71
g121
sbag0
(g67
g2
Ntp395
Rp396
(dp397
g71
g121
sbag0
(g67
g2
Ntp398
Rp399
(dp400
g71
g121
sbag0
(g67
g2
Ntp401
Rp402
(dp403
g71
g121
sbag0
(g67
g2
Ntp404
Rp405
(dp406
g71
g121
sbag0
(g67
g2
Ntp407
Rp408
(dp409
g71
g121
sbag0
(g67
g2
Ntp410
Rp411
(dp412
g71
g121
sbag0
(g67
g2
Ntp413
Rp414
(dp415
g71
g121
sbag0
(g67
g2
Ntp416
Rp417
(dp418
g71
g121
sbag0
(g67
g2
Ntp419
Rp420
(dp421
g71
g121
sbag0
(g67
g2
Ntp422
Rp423
(dp424
g71
g121
sbag0
(g67
g2
Ntp425
Rp426
(dp427
g71
g121
sbag0
(g67
g2
Ntp428
Rp429
(dp430
g71
g121
sbasg26
S'You pull the knob on the drawer. The door swings open revealing a dessicated corpse inside.'
p431
sg28
Nsg29
S'An interesting but far-fetched proposition.'
p432
sg31
g432
sg33
(lp433
g35
(S'drawers?'
p434
I0
tp435
Rp436
ag35
(S'knobs?'
p437
I0
tp438
Rp439
ag35
(S'numerous drawers'
p440
I0
tp441
Rp442
asS'BRAIN_REF'
p443
g124
sS'DRAWER_NUM'
p444
I86
sg15
I610
sg39
(lp445
sg44
(lp446
g35
(S'slide'
p447
I0
tp448
Rp449
ag35
(S'pull'
p450
I0
tp451
Rp452
ag35
(S'remove'
p453
I0
tp454
Rp455
asbag0
(cCrypt
Cry_Lights
p456
g2
Ntp457
Rp458
(dp459
g23
S'From the wall extend boney arms, palms up, holding small dishes. The surfaces of the dishes burn and give off the smell of brimstone.'
p460
sg25
I00
sg26
S"There's nothing hiding here."
p461
sg28
Nsg29
g432
sg31
S"You can't do that. They are attached to the wall."
p462
sg33
(lp463
g35
(S'(?:boney )?arms'
p464
I0
tp465
Rp466
ag35
(S'(?:burning )?(?:platters?|dish(?:es)?)'
p467
I0
tp468
Rp469
ag35
(S'torch(?:es)?'
p470
I0
tp471
Rp472
ag35
(S'protrusions?'
p473
I0
tp474
Rp475
asg15
I612
sg39
(lp476
sg44
(lp477
g35
(S'get|take|acquire|grab|scoop'
p478
I0
tp479
Rp480
asbag0
(cCrypt
Cry2_Engraving
p481
g2
Ntp482
Rp483
(dp484
g23
S'The tall coffin resembles a large stone box with a lid, but something is holding it closed. The lid of the coffin is artfully decorated with a carving of a boney cloaked figure wearing a halo. Around it is an engraving resembling a doorway. The engraving depicts two grooved columns holding up a roof.'
p485
sg25
I00
sg26
g461
sg28
Nsg29
g432
sg31
S"You can't pry it open. Something is holding the coffin tightly closed."
p486
sg33
(lp487
g35
(S'(?:wall )?(?:engraving|carving)'
p488
I0
tp489
Rp490
ag35
(S'(?:stone )?(?:box|coffin|casket|lid)'
p491
I0
tp492
Rp493
ag35
(S'(?:(?:artfully )?decorated)?lid'
p494
I0
tp495
Rp496
asg15
I613
sg39
(lp497
sg44
(lp498
g35
(S'open'
p499
I0
tp500
Rp501
ag35
(S'pry'
p502
I0
tp503
Rp504
asbag0
(cCrypt
Cry2_Altar
p505
g2
Ntp506
Rp507
(dp508
g23
S'The altar is essentially a stone table adorned with many lit candles and dried flora. A few pieces of jewelry are distributed about the surface.'
p509
sg25
I01
sg26
S'You look on the altar.'
p510
sg28
g0
(g67
g2
Ntp511
Rp512
(dp513
g71
(lp514
g0
(cItem
Item
p515
g2
Ntp516
Rp517
(dp518
g7
S'dried flower'
p519
sg23
Nsg29
g127
sg128
Nsg129
I10
sg130
I0
sg131
S'item'
p520
sg133
I2
sbag0
(cItem
BreakableItem
p521
g2
Ntp522
Rp523
(dp524
g7
S'jet skull'
p525
sg23
Nsg29
g127
sg128
Nsg129
I500
sg130
I0
sg131
S'breakable'
p526
sg133
I2
sbag0
(cItem
Weapon
p527
g2
Ntp528
Rp529
(dp530
g7
S'knife'
p531
sg23
Nsg29
g127
sg128
Nsg129
I20
sg130
I0
sg131
S'weapon'
p532
sg133
I2
sbag0
(cItem
Clothing
p533
g2
Ntp534
Rp535
(dp536
g7
S'silver necklace'
p537
sg23
Nsg29
S'You put it around your neck. The heavy coldness fills you with feelings of luxury.'
p538
sg128
Nsg129
I170
sg130
I0
sg131
S'clothing'
p539
sg133
I1
sbag0
(g515
g2
Ntp540
Rp541
(dp542
g7
S'bronze coin'
p543
sg23
Nsg29
g127
sg128
Nsg129
I50
sg130
I0
sg131
g520
sg133
I2
sbasbsg29
g432
sg31
S"You really aren't part of whatever religion this is for."
p544
sg33
(lp545
g35
(S'altar'
p546
I0
tp547
Rp548
ag35
(S'(?:stone )?table(?: surface)?'
p549
I0
tp550
Rp551
ag35
(S'candles?'
p552
I0
tp553
Rp554
ag35
(S'flora'
p555
I0
tp556
Rp557
ag35
(S'effigy'
p558
I0
tp559
Rp560
ag35
(S'surface'
p561
I0
tp562
Rp563
asg15
I614
sg39
(lp564
sg44
(lp565
g35
(S'worship'
p566
I0
tp567
Rp568
ag35
(S'kneel'
p569
I0
tp570
Rp571
ag35
(S'sacrifice'
p572
I0
tp573
Rp574
ag35
(S'pray'
p575
I0
tp576
Rp577
asbag0
(cTunnels
DungeonMonsterFurniture
p578
g2
Ntp579
Rp580
(dp581
g23
S'A disfigured corpse-like creature is roaming the tunnels. It holds a dangling chain wrapped around itself several times and drags its bare feet as it walks crookedly. '
p582
sg25
I00
sg26
S"It's probably best to stay as far from that thing as possible."
p583
sg28
Nsg29
g583
sg31
g583
sg33
(lp584
g35
(S'(?:disfigured )?(?:corpse-like )?(?:creature|monster|thing)'
p585
I0
tp586
Rp587
ag35
(S'(?:unsettling )?(?:noise|sound)'
p588
I0
tp589
Rp590
asg15
I563
sg39
(lp591
g35
(g41
I0
tp592
Rp593
asg44
(lp594
g35
(S'.{2,}'
p595
I0
tp596
Rp597
asbag0
(cCrypt
Cry2_Password
p598
g2
Ntp599
Rp600
(dp601
g23
S'There is nothing with that name here.'
p602
sg25
I00
sg26
g602
sg28
Nsg29
g602
sg31
S'As you speak the phrase before the stone coffin, it slides to the side with a rumble, revealing a metal door.'
p603
sg33
(lp604
g35
(S'it is i,? friend,? welcome me\\.?'
p605
I0
tp606
Rp607
ag35
(S'is i,? friend,? welcome me\\.?'
p608
I0
tp609
Rp610
asS'CRY1_STAT_ID'
p611
I615
sg15
I616
sg39
(lp612
g35
(g41
I0
tp613
Rp614
asg44
(lp615
g35
(S'talk'
p616
I0
tp617
Rp618
ag35
(S'speak'
p619
I0
tp620
Rp621
ag35
(S'say'
p622
I0
tp623
Rp624
ag35
(S'announce'
p625
I0
tp626
Rp627
ag35
(S'whisper'
p628
I0
tp629
Rp630
ag35
(S'it'
p631
I0
tp632
Rp633
asbag0
(cCrypt
Cry_Dummy
p634
g2
Ntp635
Rp636
(dp637
g23
S'There is nothing with that name here.'
p638
sg25
I00
sg26
g638
sg28
Nsg29
g638
sg31
S'You speak the words, but nothing happens'
p639
sg33
(lp640
g593
asg15
I609
sg39
(lp641
g593
asg44
(lp642
g35
(g616
I0
tp643
Rp644
ag35
(g619
I0
tp645
Rp646
ag35
(g622
I0
tp647
Rp648
ag35
(g625
I0
tp649
Rp650
ag35
(g628
I0
tp651
Rp652
asbag0
(cStructure_gen
Ceiling
p653
g2
Ntp654
Rp655
(dp656
g23
S"There's nothing too exciting about the ceiling here."
p657
sg25
I00
sg26
S'There exists no evidence of something being hidden there.'
p658
sg28
Nsg29
S'You poke the ceiling with the long object.'
p659
sg31
S"It's too high up to do that. Also, why?"
p660
sg33
(lp661
g35
(S'ceiling'
p662
I0
tp663
Rp664
ag35
(S'roof'
p665
I0
tp666
Rp667
asg15
I18
sg39
(lp668
g35
(S'polearm'
p669
I0
tp670
Rp671
ag35
(S'wooden spear'
p672
I0
tp673
Rp674
ag35
(S'silver spear'
p675
I0
tp676
Rp677
asg44
(lp678
g35
(S'feel|touch|poke'
p679
I0
tp680
Rp681
asbasb.